; Function Attrs: nounwind uwtable
define hidden void @je_hpa_shard_disable(ptr noundef %0, ptr noundef %1) local_unnamed_addr #1 {
  %3 = getelementptr inbounds nuw i8, ptr %1, i64 136
  %4 = tail call i32 @pthread_mutex_trylock(ptr noundef nonnull %3) #8
  %.not.i = icmp eq i32 %4, 0
  br i1 %.not.i, label %malloc_mutex_trylock_final.exit.i, label %6

malloc_mutex_trylock_final.exit.i:                ; preds = %2
  %5 = getelementptr inbounds nuw i8, ptr %1, i64 128
  store atomic i8 1, ptr %5 monotonic, align 1
  br label %8

6:                                                ; preds = %2
  %7 = getelementptr inbounds nuw i8, ptr %1, i64 64
  tail call void @je_malloc_mutex_lock_slow(ptr noundef nonnull %7) #8
  br label %8

8:                                                ; preds = %6, %malloc_mutex_trylock_final.exit.i
  %9 = getelementptr inbounds nuw i8, ptr %1, i64 120
  %10 = load i64, ptr %9, align 8, !tbaa !56
  %11 = add i64 %10, 1
  store i64 %11, ptr %9, align 8, !tbaa !56
  %12 = getelementptr inbounds nuw i8, ptr %1, i64 112
  %13 = load ptr, ptr %12, align 8, !tbaa !60
  %.not.i.i = icmp eq ptr %13, %0
  br i1 %.not.i.i, label %malloc_mutex_lock.exit, label %14

14:                                               ; preds = %8
  store ptr %0, ptr %12, align 8, !tbaa !60
  %15 = getelementptr inbounds nuw i8, ptr %1, i64 104
  %16 = load i64, ptr %15, align 8, !tbaa !61
  %17 = add i64 %16, 1
  store i64 %17, ptr %15, align 8, !tbaa !61
  br label %malloc_mutex_lock.exit

malloc_mutex_lock.exit:                           ; preds = %8, %14
  %18 = getelementptr inbounds nuw i8, ptr %1, i64 296
  tail call void @je_edata_cache_fast_disable(ptr noundef %0, ptr noundef nonnull %18) #8
  %19 = getelementptr inbounds nuw i8, ptr %1, i64 128
  store atomic i8 0, ptr %19 monotonic, align 1
  %20 = tail call i32 @pthread_mutex_unlock(ptr noundef nonnull %3) #8
  ret void
}